; Function Attrs: mustprogress uwtable
define hidden noundef signext i16 @_ZN2TH22THFile_readShortScalarEPNS_8THFile__E(ptr noundef %0) local_unnamed_addr #3 {
  %2 = alloca i16, align 2
  call void @llvm.lifetime.start.p0(i64 2, ptr nonnull %2) #8
  %3 = load ptr, ptr %0, align 8, !tbaa !3
  %4 = getelementptr inbounds nuw i8, ptr %3, i64 24
  %5 = load ptr, ptr %4, align 8, !tbaa !13
  %6 = call noundef i64 %5(ptr noundef nonnull %0, ptr noundef nonnull %2, i64 noundef 1)
  %7 = load i16, ptr %2, align 2, !tbaa !32
  call void @llvm.lifetime.end.p0(i64 2, ptr nonnull %2) #8
  ret i16 %7
}